; Function Attrs: nounwind uwtable
define internal fastcc void @_jumbleRenameStmt(ptr noundef %0, ptr noundef nonnull readonly captures(none) %1) unnamed_addr #0 {
  %3 = getelementptr inbounds nuw i8, ptr %1, i64 4
  %4 = load ptr, ptr %0, align 8
  %5 = getelementptr inbounds nuw i8, ptr %0, i64 8
  %6 = load i64, ptr %5, align 8
  br label %.lr.ph.i

.lr.ph.i:                                         ; preds = %10, %2
  %.026.i = phi ptr [ %15, %10 ], [ %3, %2 ]
  %.02125.i = phi i64 [ %16, %10 ], [ 4, %2 ]
  %.02224.i = phi i64 [ %14, %10 ], [ %6, %2 ]
  %7 = icmp ugt i64 %.02224.i, 1023
  br i1 %7, label %8, label %10

8:                                                ; preds = %.lr.ph.i
  %9 = tail call i64 @hash_bytes_extended(ptr noundef %4, i32 noundef 1024, i64 noundef 0) #9
  store i64 %9, ptr %4, align 1
  br label %10

10:                                               ; preds = %8, %.lr.ph.i
  %.1.i = phi i64 [ 8, %8 ], [ %.02224.i, %.lr.ph.i ]
  %11 = sub nuw nsw i64 1024, %.1.i
  %12 = tail call i64 @llvm.umin.i64(i64 %.02125.i, i64 %11)
  %13 = getelementptr inbounds nuw i8, ptr %4, i64 %.1.i
  tail call void @llvm.memcpy.p0.p0.i64(ptr noundef nonnull align 1 dereferenceable(1) %13, ptr noundef nonnull align 1 dereferenceable(1) %.026.i, i64 %12, i1 false)
  %14 = add nuw nsw i64 %12, %.1.i
  %15 = getelementptr inbounds nuw i8, ptr %.026.i, i64 %12
  %16 = sub i64 %.02125.i, %12
  %.not.i = icmp eq i64 %16, 0
  br i1 %.not.i, label %AppendJumble.exit, label %.lr.ph.i, !llvm.loop !7

AppendJumble.exit:                                ; preds = %10
  store i64 %14, ptr %5, align 8
  %17 = getelementptr inbounds nuw i8, ptr %1, i64 8
  %18 = load ptr, ptr %0, align 8
  br label %.lr.ph.i23

.lr.ph.i23:                                       ; preds = %22, %AppendJumble.exit
  %.026.i24 = phi ptr [ %27, %22 ], [ %17, %AppendJumble.exit ]
  %.02125.i25 = phi i64 [ %28, %22 ], [ 4, %AppendJumble.exit ]
  %.02224.i26 = phi i64 [ %26, %22 ], [ %14, %AppendJumble.exit ]
  %19 = icmp ugt i64 %.02224.i26, 1023
  br i1 %19, label %20, label %22

20:                                               ; preds = %.lr.ph.i23
  %21 = tail call i64 @hash_bytes_extended(ptr noundef %18, i32 noundef 1024, i64 noundef 0) #9
  store i64 %21, ptr %18, align 1
  br label %22

22:                                               ; preds = %20, %.lr.ph.i23
  %.1.i27 = phi i64 [ 8, %20 ], [ %.02224.i26, %.lr.ph.i23 ]
  %23 = sub nuw nsw i64 1024, %.1.i27
  %24 = tail call i64 @llvm.umin.i64(i64 %.02125.i25, i64 %23)
  %25 = getelementptr inbounds nuw i8, ptr %18, i64 %.1.i27
  tail call void @llvm.memcpy.p0.p0.i64(ptr noundef nonnull align 1 dereferenceable(1) %25, ptr noundef nonnull align 1 dereferenceable(1) %.026.i24, i64 %24, i1 false)
  %26 = add nuw nsw i64 %24, %.1.i27
  %27 = getelementptr inbounds nuw i8, ptr %.026.i24, i64 %24
  %28 = sub i64 %.02125.i25, %24
  %.not.i28 = icmp eq i64 %28, 0
  br i1 %.not.i28, label %AppendJumble.exit29, label %.lr.ph.i23, !llvm.loop !7

AppendJumble.exit29:                              ; preds = %22
  store i64 %26, ptr %5, align 8
  %29 = getelementptr inbounds nuw i8, ptr %1, i64 16
  %30 = load ptr, ptr %29, align 8
  tail call fastcc void @_jumbleNode(ptr noundef nonnull %0, ptr noundef %30)
  %31 = getelementptr inbounds nuw i8, ptr %1, i64 24
  %32 = load ptr, ptr %31, align 8
  tail call fastcc void @_jumbleNode(ptr noundef nonnull %0, ptr noundef %32)
  %33 = getelementptr inbounds nuw i8, ptr %1, i64 32
  %34 = load ptr, ptr %33, align 8
  %.not = icmp eq ptr %34, null
  %.pre72.pre74 = load ptr, ptr %0, align 8
  %.pre73.pre = load i64, ptr %5, align 8
  br i1 %.not, label %48, label %35

35:                                               ; preds = %AppendJumble.exit29
  %36 = tail call i64 @strlen(ptr noundef nonnull dereferenceable(1) %34) #8
  %37 = add i64 %36, 1
  %.not23.i = icmp eq i64 %37, 0
  br i1 %.not23.i, label %AppendJumble.exit36, label %.lr.ph.i30

.lr.ph.i30:                                       ; preds = %35, %41
  %.026.i31 = phi ptr [ %46, %41 ], [ %34, %35 ]
  %.02125.i32 = phi i64 [ %47, %41 ], [ %37, %35 ]
  %.02224.i33 = phi i64 [ %45, %41 ], [ %.pre73.pre, %35 ]
  %38 = icmp ugt i64 %.02224.i33, 1023
  br i1 %38, label %39, label %41

39:                                               ; preds = %.lr.ph.i30
  %40 = tail call i64 @hash_bytes_extended(ptr noundef %.pre72.pre74, i32 noundef 1024, i64 noundef 0) #9
  store i64 %40, ptr %.pre72.pre74, align 1
  br label %41

41:                                               ; preds = %39, %.lr.ph.i30
  %.1.i34 = phi i64 [ 8, %39 ], [ %.02224.i33, %.lr.ph.i30 ]
  %42 = sub nuw nsw i64 1024, %.1.i34
  %43 = tail call i64 @llvm.umin.i64(i64 %.02125.i32, i64 %42)
  %44 = getelementptr inbounds nuw i8, ptr %.pre72.pre74, i64 %.1.i34
  tail call void @llvm.memcpy.p0.p0.i64(ptr noundef nonnull align 1 dereferenceable(1) %44, ptr noundef nonnull align 1 dereferenceable(1) %.026.i31, i64 %43, i1 false)
  %45 = add nuw nsw i64 %43, %.1.i34
  %46 = getelementptr inbounds nuw i8, ptr %.026.i31, i64 %43
  %47 = sub i64 %.02125.i32, %43
  %.not.i35 = icmp eq i64 %47, 0
  br i1 %.not.i35, label %AppendJumble.exit36.loopexit, label %.lr.ph.i30, !llvm.loop !7

AppendJumble.exit36.loopexit:                     ; preds = %41
  %.pre72.pre.pre = load ptr, ptr %0, align 8
  br label %AppendJumble.exit36

AppendJumble.exit36:                              ; preds = %AppendJumble.exit36.loopexit, %35
  %.pre72.pre = phi ptr [ %.pre72.pre74, %35 ], [ %.pre72.pre.pre, %AppendJumble.exit36.loopexit ]
  %.022.lcssa.i = phi i64 [ %.pre73.pre, %35 ], [ %45, %AppendJumble.exit36.loopexit ]
  store i64 %.022.lcssa.i, ptr %5, align 8
  br label %48

48:                                               ; preds = %AppendJumble.exit29, %AppendJumble.exit36
  %.pre73 = phi i64 [ %.pre73.pre, %AppendJumble.exit29 ], [ %.022.lcssa.i, %AppendJumble.exit36 ]
  %.pre72 = phi ptr [ %.pre72.pre74, %AppendJumble.exit29 ], [ %.pre72.pre, %AppendJumble.exit36 ]
  %49 = getelementptr inbounds nuw i8, ptr %1, i64 40
  %50 = load ptr, ptr %49, align 8
  %.not22 = icmp eq ptr %50, null
  br i1 %.not22, label %64, label %51

51:                                               ; preds = %48
  %52 = tail call i64 @strlen(ptr noundef nonnull dereferenceable(1) %50) #8
  %53 = add i64 %52, 1
  %.not23.i37 = icmp eq i64 %53, 0
  br i1 %.not23.i37, label %AppendJumble.exit45, label %.lr.ph.i38

.lr.ph.i38:                                       ; preds = %51, %57
  %.026.i39 = phi ptr [ %62, %57 ], [ %50, %51 ]
  %.02125.i40 = phi i64 [ %63, %57 ], [ %53, %51 ]
  %.02224.i41 = phi i64 [ %61, %57 ], [ %.pre73, %51 ]
  %54 = icmp ugt i64 %.02224.i41, 1023
  br i1 %54, label %55, label %57

55:                                               ; preds = %.lr.ph.i38
  %56 = tail call i64 @hash_bytes_extended(ptr noundef %.pre72, i32 noundef 1024, i64 noundef 0) #9
  store i64 %56, ptr %.pre72, align 1
  br label %57

57:                                               ; preds = %55, %.lr.ph.i38
  %.1.i42 = phi i64 [ 8, %55 ], [ %.02224.i41, %.lr.ph.i38 ]
  %58 = sub nuw nsw i64 1024, %.1.i42
  %59 = tail call i64 @llvm.umin.i64(i64 %.02125.i40, i64 %58)
  %60 = getelementptr inbounds nuw i8, ptr %.pre72, i64 %.1.i42
  tail call void @llvm.memcpy.p0.p0.i64(ptr noundef nonnull align 1 dereferenceable(1) %60, ptr noundef nonnull align 1 dereferenceable(1) %.026.i39, i64 %59, i1 false)
  %61 = add nuw nsw i64 %59, %.1.i42
  %62 = getelementptr inbounds nuw i8, ptr %.026.i39, i64 %59
  %63 = sub i64 %.02125.i40, %59
  %.not.i43 = icmp eq i64 %63, 0
  br i1 %.not.i43, label %AppendJumble.exit45.loopexit, label %.lr.ph.i38, !llvm.loop !7

AppendJumble.exit45.loopexit:                     ; preds = %57
  %.pre.pre = load ptr, ptr %0, align 8
  br label %AppendJumble.exit45

AppendJumble.exit45:                              ; preds = %AppendJumble.exit45.loopexit, %51
  %.pre = phi ptr [ %.pre72, %51 ], [ %.pre.pre, %AppendJumble.exit45.loopexit ]
  %.022.lcssa.i44 = phi i64 [ %.pre73, %51 ], [ %61, %AppendJumble.exit45.loopexit ]
  store i64 %.022.lcssa.i44, ptr %5, align 8
  br label %64

64:                                               ; preds = %AppendJumble.exit45, %48
  %65 = phi i64 [ %.022.lcssa.i44, %AppendJumble.exit45 ], [ %.pre73, %48 ]
  %66 = phi ptr [ %.pre, %AppendJumble.exit45 ], [ %.pre72, %48 ]
  %67 = getelementptr inbounds nuw i8, ptr %1, i64 48
  br label %.lr.ph.i46

.lr.ph.i46:                                       ; preds = %71, %64
  %.026.i47 = phi ptr [ %76, %71 ], [ %67, %64 ]
  %.02125.i48 = phi i64 [ %77, %71 ], [ 4, %64 ]
  %.02224.i49 = phi i64 [ %75, %71 ], [ %65, %64 ]
  %68 = icmp ugt i64 %.02224.i49, 1023
  br i1 %68, label %69, label %71

69:                                               ; preds = %.lr.ph.i46
  %70 = tail call i64 @hash_bytes_extended(ptr noundef %66, i32 noundef 1024, i64 noundef 0) #9
  store i64 %70, ptr %66, align 1
  br label %71

71:                                               ; preds = %69, %.lr.ph.i46
  %.1.i50 = phi i64 [ 8, %69 ], [ %.02224.i49, %.lr.ph.i46 ]
  %72 = sub nuw nsw i64 1024, %.1.i50
  %73 = tail call i64 @llvm.umin.i64(i64 %.02125.i48, i64 %72)
  %74 = getelementptr inbounds nuw i8, ptr %66, i64 %.1.i50
  tail call void @llvm.memcpy.p0.p0.i64(ptr noundef nonnull align 1 dereferenceable(1) %74, ptr noundef nonnull align 1 dereferenceable(1) %.026.i47, i64 %73, i1 false)
  %75 = add nuw nsw i64 %73, %.1.i50
  %76 = getelementptr inbounds nuw i8, ptr %.026.i47, i64 %73
  %77 = sub i64 %.02125.i48, %73
  %.not.i51 = icmp eq i64 %77, 0
  br i1 %.not.i51, label %AppendJumble.exit53, label %.lr.ph.i46, !llvm.loop !7

AppendJumble.exit53:                              ; preds = %71
  store i64 %75, ptr %5, align 8
  %78 = getelementptr inbounds nuw i8, ptr %1, i64 52
  %79 = load ptr, ptr %0, align 8
  br label %.lr.ph.i54

.lr.ph.i54:                                       ; preds = %83, %AppendJumble.exit53
  %.026.i55 = phi ptr [ %88, %83 ], [ %78, %AppendJumble.exit53 ]
  %.02125.i56 = phi i64 [ %89, %83 ], [ 1, %AppendJumble.exit53 ]
  %.02224.i57 = phi i64 [ %87, %83 ], [ %75, %AppendJumble.exit53 ]
  %80 = icmp ugt i64 %.02224.i57, 1023
  br i1 %80, label %81, label %83

81:                                               ; preds = %.lr.ph.i54
  %82 = tail call i64 @hash_bytes_extended(ptr noundef %79, i32 noundef 1024, i64 noundef 0) #9
  store i64 %82, ptr %79, align 1
  br label %83

83:                                               ; preds = %81, %.lr.ph.i54
  %.1.i58 = phi i64 [ 8, %81 ], [ %.02224.i57, %.lr.ph.i54 ]
  %84 = sub nuw nsw i64 1024, %.1.i58
  %85 = tail call i64 @llvm.umin.i64(i64 %.02125.i56, i64 %84)
  %86 = getelementptr inbounds nuw i8, ptr %79, i64 %.1.i58
  tail call void @llvm.memcpy.p0.p0.i64(ptr noundef nonnull align 1 dereferenceable(1) %86, ptr noundef nonnull align 1 dereferenceable(1) %.026.i55, i64 %85, i1 false)
  %87 = add nuw nsw i64 %85, %.1.i58
  %88 = getelementptr inbounds nuw i8, ptr %.026.i55, i64 %85
  %89 = sub i64 %.02125.i56, %85
  %.not.i59 = icmp eq i64 %89, 0
  br i1 %.not.i59, label %AppendJumble.exit61, label %.lr.ph.i54, !llvm.loop !7

AppendJumble.exit61:                              ; preds = %83
  store i64 %87, ptr %5, align 8
  ret void
}